target datalayout = "e-m:e-p270:32:32-p271:32:32-p272:64:64-i64:64-i128:128-f80:128-n8:16:32:64-S128"
target triple = "x86_64-pc-linux-gnu"

%struct.pack_info_t = type { [256 x i8], [6 x %struct.filter_info_t], i32, i32, %struct.chunk_info_t, i64 }
%struct.filter_info_t = type { i32, i32, [20 x i32], i64 }
%struct.chunk_info_t = type { [32 x i64], i32 }
%struct.pack_opttbl_t = type { i32, i32, ptr }

@.str = private unnamed_addr constant [2 x i8] zeroinitializer, align 1
@enable_error_stack = external global i32, align 4
@H5tools_ERR_STACK_g = external global i64, align 8
@H5tools_ERR_CLS_g = external global i64, align 8
@.str.1 = private unnamed_addr constant [126 x i8] c"generated/home/dtcxzyw/WorkSpace/Projects/compilers/llvm-opt-benchmark/bench/hdf5/hdf5/tools/src/h5repack/h5repack_opttable.c\00", align 1
@__func__.options_table_init = private unnamed_addr constant [19 x i8] c"options_table_init\00", align 1
@H5E_tools_g = external global i64, align 8
@H5E_tools_min_id_g = external global i64, align 8
@.str.2 = private unnamed_addr constant [36 x i8] c"not enough memory for options table\00", align 1
@stderr = external global ptr, align 8
@.str.3 = private unnamed_addr constant [2 x i8] c"\0A\00", align 1

; Function Attrs: nounwind uwtable
define dso_local void @init_packobject(ptr noundef %0) #0 {
  %2 = alloca ptr, align 8
  %3 = alloca i32, align 4
  %4 = alloca i32, align 4
  store ptr %0, ptr %2, align 8, !tbaa !4
  call void @llvm.lifetime.start.p0(i64 4, ptr %3) #9
  call void @llvm.lifetime.start.p0(i64 4, ptr %4) #9
  %5 = load ptr, ptr %2, align 8, !tbaa !4
  %6 = getelementptr inbounds nuw %struct.pack_info_t, ptr %5, i32 0, i32 0
  %7 = getelementptr inbounds [256 x i8], ptr %6, i64 0, i64 0
  %8 = call ptr @strcpy(ptr noundef %7, ptr noundef @.str) #9
  store i32 0, ptr %3, align 4, !tbaa !8
  br label %9

9:                                                ; preds = %42, %1
  %10 = load i32, ptr %3, align 4, !tbaa !8
  %11 = icmp slt i32 %10, 6
  br i1 %11, label %12, label %45

12:                                               ; preds = %9
  %13 = load ptr, ptr %2, align 8, !tbaa !4
  %14 = getelementptr inbounds nuw %struct.pack_info_t, ptr %13, i32 0, i32 1
  %15 = load i32, ptr %3, align 4, !tbaa !8
  %16 = sext i32 %15 to i64
  %17 = getelementptr inbounds [6 x %struct.filter_info_t], ptr %14, i64 0, i64 %16
  %18 = getelementptr inbounds nuw %struct.filter_info_t, ptr %17, i32 0, i32 0
  store i32 -1, ptr %18, align 8, !tbaa !10
  %19 = load ptr, ptr %2, align 8, !tbaa !4
  %20 = getelementptr inbounds nuw %struct.pack_info_t, ptr %19, i32 0, i32 1
  %21 = load i32, ptr %3, align 4, !tbaa !8
  %22 = sext i32 %21 to i64
  %23 = getelementptr inbounds [6 x %struct.filter_info_t], ptr %20, i64 0, i64 %22
  %24 = getelementptr inbounds nuw %struct.filter_info_t, ptr %23, i32 0, i32 3
  store i64 20, ptr %24, align 8, !tbaa !13
  store i32 0, ptr %4, align 4, !tbaa !8
  br label %25

25:                                               ; preds = %38, %12
  %26 = load i32, ptr %4, align 4, !tbaa !8
  %27 = icmp slt i32 %26, 20
  br i1 %27, label %28, label %41

28:                                               ; preds = %25
  %29 = load ptr, ptr %2, align 8, !tbaa !4
  %30 = getelementptr inbounds nuw %struct.pack_info_t, ptr %29, i32 0, i32 1
  %31 = load i32, ptr %3, align 4, !tbaa !8
  %32 = sext i32 %31 to i64
  %33 = getelementptr inbounds [6 x %struct.filter_info_t], ptr %30, i64 0, i64 %32
  %34 = getelementptr inbounds nuw %struct.filter_info_t, ptr %33, i32 0, i32 2
  %35 = load i32, ptr %4, align 4, !tbaa !8
  %36 = sext i32 %35 to i64
  %37 = getelementptr inbounds [20 x i32], ptr %34, i64 0, i64 %36
  store i32 0, ptr %37, align 4, !tbaa !8
  br label %38

38:                                               ; preds = %28
  %39 = load i32, ptr %4, align 4, !tbaa !8
  %40 = add nsw i32 %39, 1
  store i32 %40, ptr %4, align 4, !tbaa !8
  br label %25, !llvm.loop !14

41:                                               ; preds = %25
  br label %42

42:                                               ; preds = %41
  %43 = load i32, ptr %3, align 4, !tbaa !8
  %44 = add nsw i32 %43, 1
  store i32 %44, ptr %3, align 4, !tbaa !8
  br label %9, !llvm.loop !16

45:                                               ; preds = %9
  %46 = load ptr, ptr %2, align 8, !tbaa !4
  %47 = getelementptr inbounds nuw %struct.pack_info_t, ptr %46, i32 0, i32 4
  %48 = getelementptr inbounds nuw %struct.chunk_info_t, ptr %47, i32 0, i32 1
  store i32 -1, ptr %48, align 8, !tbaa !17
  %49 = load ptr, ptr %2, align 8, !tbaa !4
  %50 = getelementptr inbounds nuw %struct.pack_info_t, ptr %49, i32 0, i32 5
  store i64 -1, ptr %50, align 8, !tbaa !20
  %51 = load ptr, ptr %2, align 8, !tbaa !4
  %52 = getelementptr inbounds nuw %struct.pack_info_t, ptr %51, i32 0, i32 3
  store i32 -1, ptr %52, align 4, !tbaa !21
  %53 = load ptr, ptr %2, align 8, !tbaa !4
  %54 = getelementptr inbounds nuw %struct.pack_info_t, ptr %53, i32 0, i32 2
  store i32 0, ptr %54, align 8, !tbaa !22
  call void @llvm.lifetime.end.p0(i64 4, ptr %4) #9
  call void @llvm.lifetime.end.p0(i64 4, ptr %3) #9
  ret void
}

; Function Attrs: nounwind uwtable
define dso_local i32 @options_table_init(ptr noundef %0) #0 {
  %2 = alloca ptr, align 8
  %3 = alloca i32, align 4
  %4 = alloca ptr, align 8
  %5 = alloca i32, align 4
  store ptr %0, ptr %2, align 8, !tbaa !4
  call void @llvm.lifetime.start.p0(i64 4, ptr %3) #9
  call void @llvm.lifetime.start.p0(i64 8, ptr %4) #9
  call void @llvm.lifetime.start.p0(i64 4, ptr %5) #9
  store i32 0, ptr %5, align 4, !tbaa !8
  %6 = call noalias ptr @malloc(i64 noundef 16) #10
  store ptr %6, ptr %4, align 8, !tbaa !4
  %7 = icmp eq ptr null, %6
  br i1 %7, label %8, label %39

8:                                                ; preds = %1
  br label %9

9:                                                ; preds = %8
  br label %10

10:                                               ; preds = %9
  %11 = load i32, ptr @enable_error_stack, align 4, !tbaa !8
  %12 = icmp sgt i32 %11, 0
  br i1 %12, label %13, label %31

13:                                               ; preds = %10
  %14 = load i64, ptr @H5tools_ERR_STACK_g, align 8, !tbaa !23
  %15 = icmp sge i64 %14, 0
  br i1 %15, label %16, label %25

16:                                               ; preds = %13
  %17 = load i64, ptr @H5tools_ERR_CLS_g, align 8, !tbaa !23
  %18 = icmp sge i64 %17, 0
  br i1 %18, label %19, label %25

19:                                               ; preds = %16
  %20 = load i64, ptr @H5tools_ERR_STACK_g, align 8, !tbaa !23
  %21 = load i64, ptr @H5tools_ERR_CLS_g, align 8, !tbaa !23
  %22 = load i64, ptr @H5E_tools_g, align 8, !tbaa !23
  %23 = load i64, ptr @H5E_tools_min_id_g, align 8, !tbaa !23
  %24 = call i32 (i64, ptr, ptr, i32, i64, i64, i64, ptr, ...) @H5Epush2(i64 noundef %20, ptr noundef @.str.1, ptr noundef @__func__.options_table_init, i32 noundef 136, i64 noundef %21, i64 noundef %22, i64 noundef %23, ptr noundef @.str.2)
  br label %30

25:                                               ; preds = %16, %13
  %26 = load ptr, ptr @stderr, align 8, !tbaa !24
  %27 = call i32 (ptr, ptr, ...) @fprintf(ptr noundef %26, ptr noundef @.str.2) #9
  %28 = load ptr, ptr @stderr, align 8, !tbaa !24
  %29 = call i32 (ptr, ptr, ...) @fprintf(ptr noundef %28, ptr noundef @.str.3) #9
  br label %30

30:                                               ; preds = %25, %19
  br label %31

31:                                               ; preds = %30, %10
  br label %32

32:                                               ; preds = %31
  br label %33

33:                                               ; preds = %32
  br label %34

34:                                               ; preds = %33
  store i32 -1, ptr %5, align 4, !tbaa !8
  br label %105

35:                                               ; No predecessors!
  br label %36

36:                                               ; preds = %35
  br label %37

37:                                               ; preds = %36
  br label %38

38:                                               ; preds = %37
  br label %39

39:                                               ; preds = %38, %1
  %40 = load ptr, ptr %4, align 8, !tbaa !4
  %41 = getelementptr inbounds nuw %struct.pack_opttbl_t, ptr %40, i32 0, i32 0
  store i32 30, ptr %41, align 8, !tbaa !26
  %42 = load ptr, ptr %4, align 8, !tbaa !4
  %43 = getelementptr inbounds nuw %struct.pack_opttbl_t, ptr %42, i32 0, i32 1
  store i32 0, ptr %43, align 4, !tbaa !28
  %44 = load ptr, ptr %4, align 8, !tbaa !4
  %45 = getelementptr inbounds nuw %struct.pack_opttbl_t, ptr %44, i32 0, i32 0
  %46 = load i32, ptr %45, align 8, !tbaa !26
  %47 = zext i32 %46 to i64
  %48 = mul i64 %47, 1112
  %49 = call noalias ptr @malloc(i64 noundef %48) #10
  %50 = load ptr, ptr %4, align 8, !tbaa !4
  %51 = getelementptr inbounds nuw %struct.pack_opttbl_t, ptr %50, i32 0, i32 2
  store ptr %49, ptr %51, align 8, !tbaa !29
  %52 = icmp eq ptr null, %49
  br i1 %52, label %53, label %85

53:                                               ; preds = %39
  %54 = load ptr, ptr %4, align 8, !tbaa !4
  call void @free(ptr noundef %54) #9
  br label %55

55:                                               ; preds = %53
  br label %56

56:                                               ; preds = %55
  %57 = load i32, ptr @enable_error_stack, align 4, !tbaa !8
  %58 = icmp sgt i32 %57, 0
  br i1 %58, label %59, label %77

59:                                               ; preds = %56
  %60 = load i64, ptr @H5tools_ERR_STACK_g, align 8, !tbaa !23
  %61 = icmp sge i64 %60, 0
  br i1 %61, label %62, label %71

62:                                               ; preds = %59
  %63 = load i64, ptr @H5tools_ERR_CLS_g, align 8, !tbaa !23
  %64 = icmp sge i64 %63, 0
  br i1 %64, label %65, label %71

65:                                               ; preds = %62
  %66 = load i64, ptr @H5tools_ERR_STACK_g, align 8, !tbaa !23
  %67 = load i64, ptr @H5tools_ERR_CLS_g, align 8, !tbaa !23
  %68 = load i64, ptr @H5E_tools_g, align 8, !tbaa !23
  %69 = load i64, ptr @H5E_tools_min_id_g, align 8, !tbaa !23
  %70 = call i32 (i64, ptr, ptr, i32, i64, i64, i64, ptr, ...) @H5Epush2(i64 noundef %66, ptr noundef @.str.1, ptr noundef @__func__.options_table_init, i32 noundef 143, i64 noundef %67, i64 noundef %68, i64 noundef %69, ptr noundef @.str.2)
  br label %76

71:                                               ; preds = %62, %59
  %72 = load ptr, ptr @stderr, align 8, !tbaa !24
  %73 = call i32 (ptr, ptr, ...) @fprintf(ptr noundef %72, ptr noundef @.str.2) #9
  %74 = load ptr, ptr @stderr, align 8, !tbaa !24
  %75 = call i32 (ptr, ptr, ...) @fprintf(ptr noundef %74, ptr noundef @.str.3) #9
  br label %76

76:                                               ; preds = %71, %65
  br label %77

77:                                               ; preds = %76, %56
  br label %78

78:                                               ; preds = %77
  br label %79

79:                                               ; preds = %78
  br label %80

80:                                               ; preds = %79
  store i32 -1, ptr %5, align 4, !tbaa !8
  br label %105

81:                                               ; No predecessors!
  br label %82

82:                                               ; preds = %81
  br label %83

83:                                               ; preds = %82
  br label %84

84:                                               ; preds = %83
  br label %85

85:                                               ; preds = %84, %39
  store i32 0, ptr %3, align 4, !tbaa !8
  br label %86

86:                                               ; preds = %99, %85
  %87 = load i32, ptr %3, align 4, !tbaa !8
  %88 = load ptr, ptr %4, align 8, !tbaa !4
  %89 = getelementptr inbounds nuw %struct.pack_opttbl_t, ptr %88, i32 0, i32 0
  %90 = load i32, ptr %89, align 8, !tbaa !26
  %91 = icmp ult i32 %87, %90
  br i1 %91, label %92, label %102

92:                                               ; preds = %86
  %93 = load ptr, ptr %4, align 8, !tbaa !4
  %94 = getelementptr inbounds nuw %struct.pack_opttbl_t, ptr %93, i32 0, i32 2
  %95 = load ptr, ptr %94, align 8, !tbaa !29
  %96 = load i32, ptr %3, align 4, !tbaa !8
  %97 = zext i32 %96 to i64
  %98 = getelementptr inbounds nuw %struct.pack_info_t, ptr %95, i64 %97
  call void @init_packobject(ptr noundef %98)
  br label %99

99:                                               ; preds = %92
  %100 = load i32, ptr %3, align 4, !tbaa !8
  %101 = add i32 %100, 1
  store i32 %101, ptr %3, align 4, !tbaa !8
  br label %86, !llvm.loop !30

102:                                              ; preds = %86
  %103 = load ptr, ptr %4, align 8, !tbaa !4
  %104 = load ptr, ptr %2, align 8, !tbaa !4
  store ptr %103, ptr %104, align 8, !tbaa !4
  br label %105

105:                                              ; preds = %102, %80, %34
  %106 = load i32, ptr %5, align 4, !tbaa !8
  call void @llvm.lifetime.end.p0(i64 4, ptr %5) #9
  call void @llvm.lifetime.end.p0(i64 8, ptr %4) #9
  call void @llvm.lifetime.end.p0(i64 4, ptr %3) #9
  ret i32 %106
}