; Function Attrs: nounwind uwtable
define dso_local range(i32 -1, 1) i32 @options_table_init(ptr noundef writeonly captures(none) %0) local_unnamed_addr #3 {
  %2 = tail call noalias dereferenceable_or_null(16) ptr @malloc(i64 noundef 16) #16
  %3 = icmp eq ptr %2, null
  br i1 %3, label %4, label %20

4:                                                ; preds = %1
  %5 = load i32, ptr @enable_error_stack, align 4, !tbaa !11
  %6 = icmp sgt i32 %5, 0
  br i1 %6, label %7, label %52

7:                                                ; preds = %4
  %8 = load i64, ptr @H5tools_ERR_STACK_g, align 8, !tbaa !20
  %9 = icmp sgt i64 %8, -1
  %10 = load i64, ptr @H5tools_ERR_CLS_g, align 8
  %11 = icmp sgt i64 %10, -1
  %or.cond = select i1 %9, i1 %11, i1 false
  br i1 %or.cond, label %12, label %16

12:                                               ; preds = %7
  %13 = load i64, ptr @H5E_tools_g, align 8, !tbaa !20
  %14 = load i64, ptr @H5E_tools_min_id_g, align 8, !tbaa !20
  %15 = tail call i32 (i64, ptr, ptr, i32, i64, i64, i64, ptr, ...) @H5Epush2(i64 noundef %8, ptr noundef nonnull @.str.1, ptr noundef nonnull @__func__.options_table_init, i32 noundef 136, i64 noundef %10, i64 noundef %13, i64 noundef %14, ptr noundef nonnull @.str.2) #17
  br label %52

16:                                               ; preds = %7
  %17 = load ptr, ptr @stderr, align 8, !tbaa !21
  %18 = tail call i64 @fwrite(ptr nonnull @.str.2, i64 35, i64 1, ptr %17) #18
  %19 = load ptr, ptr @stderr, align 8, !tbaa !21
  %fputc21 = tail call i32 @fputc(i32 10, ptr %19)
  br label %52

20:                                               ; preds = %1
  store i32 30, ptr %2, align 8, !tbaa !24
  %21 = getelementptr inbounds nuw i8, ptr %2, i64 4
  store i32 0, ptr %21, align 4, !tbaa !26
  %22 = tail call noalias dereferenceable_or_null(33360) ptr @malloc(i64 noundef 33360) #16
  %23 = getelementptr inbounds nuw i8, ptr %2, i64 8
  store ptr %22, ptr %23, align 8, !tbaa !27
  %24 = icmp eq ptr %22, null
  br i1 %24, label %25, label %.lr.ph

25:                                               ; preds = %20
  tail call void @free(ptr noundef nonnull %2) #17
  %26 = load i32, ptr @enable_error_stack, align 4, !tbaa !11
  %27 = icmp sgt i32 %26, 0
  br i1 %27, label %28, label %52

28:                                               ; preds = %25
  %29 = load i64, ptr @H5tools_ERR_STACK_g, align 8, !tbaa !20
  %30 = icmp sgt i64 %29, -1
  %31 = load i64, ptr @H5tools_ERR_CLS_g, align 8
  %32 = icmp sgt i64 %31, -1
  %or.cond3 = select i1 %30, i1 %32, i1 false
  br i1 %or.cond3, label %33, label %37

33:                                               ; preds = %28
  %34 = load i64, ptr @H5E_tools_g, align 8, !tbaa !20
  %35 = load i64, ptr @H5E_tools_min_id_g, align 8, !tbaa !20
  %36 = tail call i32 (i64, ptr, ptr, i32, i64, i64, i64, ptr, ...) @H5Epush2(i64 noundef %29, ptr noundef nonnull @.str.1, ptr noundef nonnull @__func__.options_table_init, i32 noundef 143, i64 noundef %31, i64 noundef %34, i64 noundef %35, ptr noundef nonnull @.str.2) #17
  br label %52

37:                                               ; preds = %28
  %38 = load ptr, ptr @stderr, align 8, !tbaa !21
  %39 = tail call i64 @fwrite(ptr nonnull @.str.2, i64 35, i64 1, ptr %38) #18
  %40 = load ptr, ptr @stderr, align 8, !tbaa !21
  %fputc = tail call i32 @fputc(i32 10, ptr %40)
  br label %52

.lr.ph:                                           ; preds = %20, %init_packobject.exit
  %indvars.iv = phi i64 [ %indvars.iv.next, %init_packobject.exit ], [ 0, %20 ]
  %41 = getelementptr inbounds nuw %struct.pack_info_t, ptr %22, i64 %indvars.iv
  store i8 0, ptr %41, align 1
  %42 = getelementptr inbounds nuw i8, ptr %41, i64 256
  %invariant.gep.i = getelementptr i8, ptr %41, i64 264
  br label %43

43:                                               ; preds = %43, %.lr.ph
  %indvar.i = phi i64 [ 0, %.lr.ph ], [ %indvar.next.i, %43 ]
  %44 = mul nuw nsw i64 %indvar.i, 96
  %gep.i = getelementptr i8, ptr %invariant.gep.i, i64 %44
  %45 = getelementptr inbounds nuw [6 x %struct.filter_info_t], ptr %42, i64 0, i64 %indvar.i
  store i32 -1, ptr %45, align 8, !tbaa !4
  %46 = getelementptr inbounds nuw i8, ptr %45, i64 88
  store i64 20, ptr %46, align 8, !tbaa !10
  tail call void @llvm.memset.p0.i64(ptr noundef nonnull align 4 dereferenceable(80) %gep.i, i8 0, i64 80, i1 false), !tbaa !11
  %indvar.next.i = add nuw nsw i64 %indvar.i, 1
  %exitcond.not.i = icmp eq i64 %indvar.next.i, 6
  br i1 %exitcond.not.i, label %init_packobject.exit, label %43, !llvm.loop !12

init_packobject.exit:                             ; preds = %43
  %47 = getelementptr inbounds nuw i8, ptr %41, i64 1096
  store i32 -1, ptr %47, align 8, !tbaa !14
  %48 = getelementptr inbounds nuw i8, ptr %41, i64 1104
  store i64 -1, ptr %48, align 8, !tbaa !17
  %49 = getelementptr inbounds nuw i8, ptr %41, i64 836
  store i32 -1, ptr %49, align 4, !tbaa !18
  %50 = getelementptr inbounds nuw i8, ptr %41, i64 832
  store i32 0, ptr %50, align 8, !tbaa !19
  %indvars.iv.next = add nuw nsw i64 %indvars.iv, 1
  %51 = icmp samesign ult i64 %indvars.iv, 29
  br i1 %51, label %.lr.ph, label %._crit_edge, !llvm.loop !28

._crit_edge:                                      ; preds = %init_packobject.exit
  store ptr %2, ptr %0, align 8, !tbaa !29
  br label %52

52:                                               ; preds = %33, %37, %25, %12, %16, %4, %._crit_edge
  %.0 = phi i32 [ 0, %._crit_edge ], [ -1, %4 ], [ -1, %16 ], [ -1, %12 ], [ -1, %25 ], [ -1, %37 ], [ -1, %33 ]
  ret i32 %.0
}